(lp0
Vhttp://austin.craigslist.com/sub/4324046349.html
p1
aVhttp://austin.craigslist.com/sub/4339028007.html
p2
aVhttp://austin.craigslist.com/sub/4339012896.html
p3
aVhttp://austin.craigslist.com/sub/4338384543.html
p4
aVhttp://austin.craigslist.com/sub/4306314595.html
p5
aVhttp://austin.craigslist.com/sub/4323775856.html
p6
aVhttp://austin.craigslist.com/sub/4324067701.html
p7
aVhttp://austin.craigslist.com/sub/4337754485.html
p8
aVhttp://austin.craigslist.com/sub/4322366368.html
p9
aVhttp://austin.craigslist.com/sub/4321310428.html
p10
aVhttp://austin.craigslist.com/sub/4336638479.html
p11
aVhttp://austin.craigslist.com/sub/4322317606.html
p12
aVhttp://austin.craigslist.com/sub/4325164710.html
p13
a.